target datalayout = "e-m:e-p270:32:32-p271:32:32-p272:64:64-i64:64-i128:128-f80:128-n8:16:32:64-S128"
target triple = "x86_64-pc-linux-gnu"

%struct.iseq_link_element = type { i32, ptr, ptr }
%struct.iseq_insn_data = type { %struct.iseq_link_element, i32, i32, i32, ptr, %struct.anon.21 }
%struct.anon.21 = type { i32, i32, i32 }
%struct.iseq_compile_data_storage = type { ptr, i32, i32, [0 x i8] }

@rb_vm_insn_op_base = external constant [0 x i8], align 1
@rb_vm_insn_op_offset = external constant [220 x i16], align 16

; Function Attrs: nounwind sspstrong willreturn memory(none) uwtable
define internal ptr @insn_op_types(i64 noundef %0) #7 {
  %2 = alloca i64, align 8
  store i64 %0, ptr %2, align 8, !tbaa !7
  %3 = load i64, ptr %2, align 8, !tbaa !7
  %4 = getelementptr [220 x i16], ptr @rb_vm_insn_op_offset, i64 0, i64 %3
  %5 = load i16, ptr %4, align 2, !tbaa !172
  %6 = zext i16 %5 to i64
  %7 = getelementptr [0 x i8], ptr @rb_vm_insn_op_base, i64 0, i64 %6
  ret ptr %7
}

; Function Attrs: nounwind sspstrong uwtable
define internal void @iseq_insn_each_markable_object(ptr noundef %0, ptr noundef %1, i64 noundef %2) #0 {
  %4 = alloca ptr, align 8
  %5 = alloca ptr, align 8
  %6 = alloca i64, align 8
  %7 = alloca ptr, align 8
  %8 = alloca i32, align 4
  %9 = alloca i8, align 1
  store ptr %0, ptr %4, align 8, !tbaa !176
  store ptr %1, ptr %5, align 8, !tbaa !152
  store i64 %2, ptr %6, align 8, !tbaa !7
  call void @llvm.lifetime.start.p0(i64 8, ptr %7) #31
  %10 = load ptr, ptr %4, align 8, !tbaa !176
  %11 = getelementptr inbounds nuw %struct.iseq_insn_data, ptr %10, i32 0, i32 1
  %12 = load i32, ptr %11, align 8, !tbaa !147
  %13 = zext i32 %12 to i64
  %14 = call ptr @insn_op_types(i64 noundef %13) #32
  store ptr %14, ptr %7, align 8, !tbaa !91
  call void @llvm.lifetime.start.p0(i64 4, ptr %8) #31
  store i32 0, ptr %8, align 4, !tbaa !41
  br label %15

15:                                               ; preds = %43, %3
  %16 = load ptr, ptr %7, align 8, !tbaa !91
  %17 = load i32, ptr %8, align 4, !tbaa !41
  %18 = sext i32 %17 to i64
  %19 = getelementptr i8, ptr %16, i64 %18
  %20 = load i8, ptr %19, align 1, !tbaa !49
  %21 = icmp ne i8 %20, 0
  br i1 %21, label %23, label %22

22:                                               ; preds = %15
  call void @llvm.lifetime.end.p0(i64 4, ptr %8) #31
  br label %46

23:                                               ; preds = %15
  call void @llvm.lifetime.start.p0(i64 1, ptr %9) #31
  %24 = load ptr, ptr %7, align 8, !tbaa !91
  %25 = load i32, ptr %8, align 4, !tbaa !41
  %26 = sext i32 %25 to i64
  %27 = getelementptr i8, ptr %24, i64 %26
  %28 = load i8, ptr %27, align 1, !tbaa !49
  store i8 %28, ptr %9, align 1, !tbaa !49
  %29 = load i8, ptr %9, align 1, !tbaa !49
  %30 = sext i8 %29 to i32
  switch i32 %30, label %41 [
    i32 72, label %31
    i32 83, label %31
    i32 86, label %31
    i32 75, label %31
    i32 67, label %31
  ]

31:                                               ; preds = %23, %23, %23, %23, %23
  %32 = load ptr, ptr %5, align 8, !tbaa !152
  %33 = load ptr, ptr %4, align 8, !tbaa !176
  %34 = getelementptr inbounds nuw %struct.iseq_insn_data, ptr %33, i32 0, i32 4
  %35 = load ptr, ptr %34, align 8, !tbaa !178
  %36 = load i32, ptr %8, align 4, !tbaa !41
  %37 = sext i32 %36 to i64
  %38 = getelementptr i64, ptr %35, i64 %37
  %39 = load i64, ptr %38, align 8, !tbaa !7
  %40 = load i64, ptr %6, align 8, !tbaa !7
  call void %32(i64 noundef %39, i64 noundef %40)
  br label %42

41:                                               ; preds = %23
  br label %42

42:                                               ; preds = %41, %31
  call void @llvm.lifetime.end.p0(i64 1, ptr %9) #31
  br label %43

43:                                               ; preds = %42
  %44 = load i32, ptr %8, align 4, !tbaa !41
  %45 = add i32 %44, 1
  store i32 %45, ptr %8, align 4, !tbaa !41
  br label %15, !llvm.loop !180

46:                                               ; preds = %22
  call void @llvm.lifetime.end.p0(i64 8, ptr %7) #31
  ret void
}

; Function Attrs: nounwind sspstrong uwtable
define dso_local void @rb_iseq_mark_and_pin_insn_storage(ptr noundef %0) #0 {
  %2 = alloca ptr, align 8
  %3 = alloca ptr, align 8
  %4 = alloca i64, align 8
  %5 = alloca i32, align 4
  %6 = alloca i64, align 8
  %7 = alloca i64, align 8
  store ptr %0, ptr %2, align 8, !tbaa !175
  call void @llvm.lifetime.start.p0(i64 8, ptr %3) #31
  store ptr null, ptr %3, align 8, !tbaa !176
  call void @llvm.lifetime.start.p0(i64 8, ptr %4) #31
  store i64 64, ptr %4, align 8, !tbaa !7
  call void @llvm.lifetime.start.p0(i64 4, ptr %5) #31
  store i32 0, ptr %5, align 4, !tbaa !41
  br label %8

8:                                                ; preds = %51, %1
  %9 = load ptr, ptr %2, align 8, !tbaa !175
  %10 = icmp ne ptr %9, null
  br i1 %10, label %11, label %52

11:                                               ; preds = %8
  call void @llvm.lifetime.start.p0(i64 8, ptr %6) #31
  store i64 0, ptr %6, align 8, !tbaa !7
  call void @llvm.lifetime.start.p0(i64 8, ptr %7) #31
  %12 = load i32, ptr %5, align 4, !tbaa !41
  %13 = zext i32 %12 to i64
  %14 = load i64, ptr %4, align 8, !tbaa !7
  %15 = add i64 %13, %14
  %16 = add i64 %15, 0
  store i64 %16, ptr %7, align 8, !tbaa !7
  %17 = load i64, ptr %7, align 8, !tbaa !7
  %18 = load ptr, ptr %2, align 8, !tbaa !175
  %19 = getelementptr inbounds nuw %struct.iseq_compile_data_storage, ptr %18, i32 0, i32 2
  %20 = load i32, ptr %19, align 4, !tbaa !41
  %21 = zext i32 %20 to i64
  %22 = icmp ugt i64 %17, %21
  br i1 %22, label %30, label %23

23:                                               ; preds = %11
  %24 = load i64, ptr %7, align 8, !tbaa !7
  %25 = load ptr, ptr %2, align 8, !tbaa !175
  %26 = getelementptr inbounds nuw %struct.iseq_compile_data_storage, ptr %25, i32 0, i32 1
  %27 = load i32, ptr %26, align 8, !tbaa !41
  %28 = zext i32 %27 to i64
  %29 = icmp ugt i64 %24, %28
  br i1 %29, label %30, label %34

30:                                               ; preds = %23, %11
  store i32 0, ptr %5, align 4, !tbaa !41
  %31 = load ptr, ptr %2, align 8, !tbaa !175
  %32 = getelementptr inbounds nuw %struct.iseq_compile_data_storage, ptr %31, i32 0, i32 0
  %33 = load ptr, ptr %32, align 8, !tbaa !175
  store ptr %33, ptr %2, align 8, !tbaa !175
  br label %51

34:                                               ; preds = %23
  %35 = load ptr, ptr %2, align 8, !tbaa !175
  %36 = getelementptr inbounds nuw %struct.iseq_compile_data_storage, ptr %35, i32 0, i32 3
  %37 = load i32, ptr %5, align 4, !tbaa !41
  %38 = zext i32 %37 to i64
  %39 = getelementptr [0 x i8], ptr %36, i64 0, i64 %38
  store ptr %39, ptr %3, align 8, !tbaa !176
  %40 = load ptr, ptr %3, align 8, !tbaa !176
  %41 = getelementptr inbounds nuw %struct.iseq_insn_data, ptr %40, i32 0, i32 4
  %42 = load ptr, ptr %41, align 8, !tbaa !178
  %43 = icmp ne ptr %42, null
  br i1 %43, label %44, label %46

44:                                               ; preds = %34
  %45 = load ptr, ptr %3, align 8, !tbaa !176
  call void @iseq_insn_each_markable_object(ptr noundef %45, ptr noundef @iseq_insn_each_object_mark_and_pin, i64 noundef 0)
  br label %46

46:                                               ; preds = %44, %34
  %47 = load i64, ptr %4, align 8, !tbaa !7
  %48 = trunc i64 %47 to i32
  %49 = load i32, ptr %5, align 4, !tbaa !41
  %50 = add i32 %49, %48
  store i32 %50, ptr %5, align 4, !tbaa !41
  br label %51

51:                                               ; preds = %46, %30
  call void @llvm.lifetime.end.p0(i64 8, ptr %7) #31
  call void @llvm.lifetime.end.p0(i64 8, ptr %6) #31
  br label %8, !llvm.loop !179

52:                                               ; preds = %8
  call void @llvm.lifetime.end.p0(i64 4, ptr %5) #31
  call void @llvm.lifetime.end.p0(i64 8, ptr %4) #31
  call void @llvm.lifetime.end.p0(i64 8, ptr %3) #31
  ret void
}