; Function Attrs: nounwind sspstrong uwtable
define dso_local void @rb_iseq_mark_and_pin_insn_storage(ptr noundef readonly captures(address) %0) local_unnamed_addr #1 {
  %.not17 = icmp eq ptr %0, null
  br i1 %.not17, label %._crit_edge, label %.lr.ph

.lr.ph:                                           ; preds = %1, %39
  %.019 = phi ptr [ %.1, %39 ], [ %0, %1 ]
  %.01318 = phi i32 [ %.114, %39 ], [ 0, %1 ]
  %2 = zext i32 %.01318 to i64
  %3 = add nuw nsw i64 %2, 64
  %4 = getelementptr inbounds nuw i8, ptr %.019, i64 12
  %5 = load i32, ptr %4, align 4, !tbaa !39
  %6 = zext i32 %5 to i64
  %7 = icmp samesign ugt i64 %3, %6
  br i1 %7, label %13, label %8

8:                                                ; preds = %.lr.ph
  %9 = getelementptr inbounds nuw i8, ptr %.019, i64 8
  %10 = load i32, ptr %9, align 8, !tbaa !39
  %11 = zext i32 %10 to i64
  %12 = icmp samesign ugt i64 %3, %11
  br i1 %12, label %13, label %15

13:                                               ; preds = %8, %.lr.ph
  %14 = load ptr, ptr %.019, align 8, !tbaa !38
  br label %39

15:                                               ; preds = %8
  %16 = getelementptr inbounds nuw i8, ptr %.019, i64 16
  %17 = getelementptr [0 x i8], ptr %16, i64 0, i64 %2
  %18 = getelementptr inbounds nuw i8, ptr %17, i64 40
  %19 = load ptr, ptr %18, align 8, !tbaa !72
  %.not16 = icmp eq ptr %19, null
  br i1 %.not16, label %iseq_insn_each_markable_object.exit, label %20

20:                                               ; preds = %15
  %21 = getelementptr inbounds nuw i8, ptr %17, i64 24
  %22 = load i32, ptr %21, align 8, !tbaa !68
  %23 = zext i32 %22 to i64
  %24 = getelementptr [220 x i16], ptr @rb_vm_insn_op_offset, i64 0, i64 %23
  %25 = load i16, ptr %24, align 2, !tbaa !93
  %26 = zext i16 %25 to i64
  %27 = getelementptr [0 x i8], ptr @rb_vm_insn_op_base, i64 0, i64 %26
  br label %28

28:                                               ; preds = %36, %20
  %.0.i = phi i32 [ 0, %20 ], [ %37, %36 ]
  %29 = sext i32 %.0.i to i64
  %30 = getelementptr i8, ptr %27, i64 %29
  %31 = load i8, ptr %30, align 1, !tbaa !22
  switch i8 %31, label %36 [
    i8 0, label %iseq_insn_each_markable_object.exit
    i8 72, label %32
    i8 83, label %32
    i8 86, label %32
    i8 75, label %32
    i8 67, label %32
  ]

32:                                               ; preds = %28, %28, %28, %28, %28
  %33 = load ptr, ptr %18, align 8, !tbaa !72
  %34 = getelementptr i64, ptr %33, i64 %29
  %35 = load i64, ptr %34, align 8, !tbaa !37
  tail call void @rb_gc_mark(i64 noundef %35) #38
  br label %36

36:                                               ; preds = %32, %28
  %37 = add i32 %.0.i, 1
  br label %28, !llvm.loop !274

iseq_insn_each_markable_object.exit:              ; preds = %28, %15
  %38 = add i32 %.01318, 64
  br label %39

39:                                               ; preds = %iseq_insn_each_markable_object.exit, %13
  %.114 = phi i32 [ 0, %13 ], [ %38, %iseq_insn_each_markable_object.exit ]
  %.1 = phi ptr [ %14, %13 ], [ %.019, %iseq_insn_each_markable_object.exit ]
  %.not = icmp eq ptr %.1, null
  br i1 %.not, label %._crit_edge, label %.lr.ph, !llvm.loop !275

._crit_edge:                                      ; preds = %39, %1
  ret void
}